target datalayout = "e-m:e-p270:32:32-p271:32:32-p272:64:64-i64:64-i128:128-f80:128-n8:16:32:64-S128"
target triple = "x86_64-pc-linux-gnu"

@libctx = internal global ptr null, align 8
@.str.3 = private unnamed_addr constant [38 x i8] c"../openssl/test/evp_pkey_dhkem_test.c\00", align 1
@.str.65 = private unnamed_addr constant [37 x i8] c"EVP_PKEY_encapsulate_init(ctx, NULL)\00", align 1
@.str.72 = private unnamed_addr constant [37 x i8] c"EVP_PKEY_decapsulate_init(ctx, NULL)\00", align 1
@.str.76 = private unnamed_addr constant [3 x i8] c"-2\00", align 1
@.str.140 = private unnamed_addr constant [52 x i8] c"ctx = EVP_PKEY_CTX_new_from_pkey(libctx, key, NULL)\00", align 1
@.str.162 = private unnamed_addr constant [47 x i8] c"key = EVP_PKEY_Q_keygen(libctx, NULL, \22ED448\22)\00", align 1
@.str.163 = private unnamed_addr constant [6 x i8] c"ED448\00", align 1

; Function Attrs: nounwind uwtable
define internal i32 @test_ed_curve_unsupported() #0 {
  %1 = alloca i32, align 4
  %2 = alloca ptr, align 8
  %3 = alloca ptr, align 8
  call void @llvm.lifetime.start.p0(i64 4, ptr %1) #6
  call void @llvm.lifetime.start.p0(i64 8, ptr %2) #6
  store ptr null, ptr %2, align 8, !tbaa !17
  call void @llvm.lifetime.start.p0(i64 8, ptr %3) #6
  store ptr null, ptr %3, align 8, !tbaa !19
  %4 = load ptr, ptr @libctx, align 8, !tbaa !15
  %5 = call ptr (ptr, ptr, ptr, ...) @EVP_PKEY_Q_keygen(ptr noundef %4, ptr noundef null, ptr noundef @.str.163)
  store ptr %5, ptr %2, align 8, !tbaa !17
  %6 = call i32 @test_ptr(ptr noundef @.str.3, i32 noundef 776, ptr noundef @.str.162, ptr noundef %5)
  %7 = icmp ne i32 %6, 0
  br i1 %7, label %8, label %24

8:                                                ; preds = %0
  %9 = load ptr, ptr @libctx, align 8, !tbaa !15
  %10 = load ptr, ptr %2, align 8, !tbaa !17
  %11 = call ptr @EVP_PKEY_CTX_new_from_pkey(ptr noundef %9, ptr noundef %10, ptr noundef null)
  store ptr %11, ptr %3, align 8, !tbaa !19
  %12 = call i32 @test_ptr(ptr noundef @.str.3, i32 noundef 777, ptr noundef @.str.140, ptr noundef %11)
  %13 = icmp ne i32 %12, 0
  br i1 %13, label %14, label %24

14:                                               ; preds = %8
  %15 = load ptr, ptr %3, align 8, !tbaa !19
  %16 = call i32 @EVP_PKEY_encapsulate_init(ptr noundef %15, ptr noundef null)
  %17 = call i32 @test_int_eq(ptr noundef @.str.3, i32 noundef 778, ptr noundef @.str.65, ptr noundef @.str.76, i32 noundef %16, i32 noundef -2)
  %18 = icmp ne i32 %17, 0
  br i1 %18, label %19, label %24

19:                                               ; preds = %14
  %20 = load ptr, ptr %3, align 8, !tbaa !19
  %21 = call i32 @EVP_PKEY_decapsulate_init(ptr noundef %20, ptr noundef null)
  %22 = call i32 @test_int_eq(ptr noundef @.str.3, i32 noundef 779, ptr noundef @.str.72, ptr noundef @.str.76, i32 noundef %21, i32 noundef -2)
  %23 = icmp ne i32 %22, 0
  br label %24

24:                                               ; preds = %19, %14, %8, %0
  %25 = phi i1 [ false, %14 ], [ false, %8 ], [ false, %0 ], [ %23, %19 ]
  %26 = zext i1 %25 to i32
  store i32 %26, ptr %1, align 4, !tbaa !10
  %27 = load ptr, ptr %2, align 8, !tbaa !17
  call void @EVP_PKEY_free(ptr noundef %27)
  %28 = load ptr, ptr %3, align 8, !tbaa !19
  call void @EVP_PKEY_CTX_free(ptr noundef %28)
  %29 = load i32, ptr %1, align 4, !tbaa !10
  call void @llvm.lifetime.end.p0(i64 8, ptr %3) #6
  call void @llvm.lifetime.end.p0(i64 8, ptr %2) #6
  call void @llvm.lifetime.end.p0(i64 4, ptr %1) #6
  ret i32 %29
}