; Function Attrs: nounwind uwtable
define internal range(i32 0, 2) i32 @test_ed_curve_unsupported() #0 {
  %1 = load ptr, ptr @libctx, align 8, !tbaa !15
  %2 = tail call ptr (ptr, ptr, ptr, ...) @EVP_PKEY_Q_keygen(ptr noundef %1, ptr noundef null, ptr noundef nonnull @.str.163) #5
  %3 = tail call i32 @test_ptr(ptr noundef nonnull @.str.3, i32 noundef 776, ptr noundef nonnull @.str.162, ptr noundef %2) #5
  %.not = icmp eq i32 %3, 0
  br i1 %.not, label %16, label %4

4:                                                ; preds = %0
  %5 = load ptr, ptr @libctx, align 8, !tbaa !15
  %6 = tail call ptr @EVP_PKEY_CTX_new_from_pkey(ptr noundef %5, ptr noundef %2, ptr noundef null) #5
  %7 = tail call i32 @test_ptr(ptr noundef nonnull @.str.3, i32 noundef 777, ptr noundef nonnull @.str.140, ptr noundef %6) #5
  %.not5 = icmp eq i32 %7, 0
  br i1 %.not5, label %16, label %8

8:                                                ; preds = %4
  %9 = tail call i32 @EVP_PKEY_encapsulate_init(ptr noundef %6, ptr noundef null) #5
  %10 = tail call i32 @test_int_eq(ptr noundef nonnull @.str.3, i32 noundef 778, ptr noundef nonnull @.str.65, ptr noundef nonnull @.str.76, i32 noundef %9, i32 noundef -2) #5
  %.not6 = icmp eq i32 %10, 0
  br i1 %.not6, label %16, label %11

11:                                               ; preds = %8
  %12 = tail call i32 @EVP_PKEY_decapsulate_init(ptr noundef %6, ptr noundef null) #5
  %13 = tail call i32 @test_int_eq(ptr noundef nonnull @.str.3, i32 noundef 779, ptr noundef nonnull @.str.72, ptr noundef nonnull @.str.76, i32 noundef %12, i32 noundef -2) #5
  %14 = icmp ne i32 %13, 0
  %15 = zext i1 %14 to i32
  br label %16

16:                                               ; preds = %11, %8, %4, %0
  %.0 = phi ptr [ %6, %11 ], [ %6, %8 ], [ %6, %4 ], [ null, %0 ]
  %17 = phi i32 [ %15, %11 ], [ 0, %8 ], [ 0, %4 ], [ 0, %0 ]
  tail call void @EVP_PKEY_free(ptr noundef %2) #5
  tail call void @EVP_PKEY_CTX_free(ptr noundef %.0) #5
  ret i32 %17
}